target datalayout = "e-m:e-p270:32:32-p271:32:32-p272:64:64-i64:64-i128:128-f80:128-n8:16:32:64-S128"
target triple = "x86_64-pc-linux-gnu"

%class.QString = type { %struct.QArrayDataPointer }
%struct.QArrayDataPointer = type { ptr, ptr, i64 }
%class.ExpertInfoDialog = type { %class.WiresharkDialog.base, ptr, ptr, ptr, %class.QMenu, %class.QString }
%class.WiresharkDialog.base = type <{ %class.GeometryStateDialog, ptr, i8, [7 x i8], %class.QString, %class.QList, i32, i8 }>
%class.GeometryStateDialog = type { %class.QDialog, %class.QString, ptr }
%class.QDialog = type { %class.QWidget }
%class.QWidget = type { %class.QObject, %class.QPaintDevice.base, ptr }
%class.QObject = type { ptr, %class.QScopedPointer }
%class.QScopedPointer = type { ptr }
%class.QPaintDevice.base = type <{ ptr, i16 }>
%class.QList = type { %struct.QArrayDataPointer.0 }
%struct.QArrayDataPointer.0 = type { ptr, ptr, i64 }
%class.QMenu = type { %class.QWidget }

; Function Attrs: mustprogress null_pointer_is_valid sspstrong uwtable
define void @_ZN16ExpertInfoDialog28on_actionShowWarning_toggledEb(ptr noundef align 8 dereferenceable_or_null(232) %0, i1 noundef zeroext %1) #0 align 2 {
  %3 = alloca ptr, align 8
  %4 = alloca i8, align 1
  store ptr %0, ptr %3, align 8
  %5 = zext i1 %1 to i8
  store i8 %5, ptr %4, align 1
  %6 = load ptr, ptr %3, align 8
  %7 = getelementptr inbounds nuw %class.ExpertInfoDialog, ptr %6, i32 0, i32 3
  %8 = load ptr, ptr %7, align 8
  %9 = load i8, ptr %4, align 1, !range !10, !noundef !11
  %10 = trunc i8 %9 to i1
  %11 = xor i1 %10, true
  call void @_ZN20ExpertInfoProxyModel17setSeverityFilterEib(ptr noundef align 8 dereferenceable_or_null(72) %8, i32 noundef 6291456, i1 noundef zeroext %11)
  %12 = load ptr, ptr %6, align 8
  %13 = getelementptr inbounds ptr, ptr %12, i64 58
  %14 = load ptr, ptr %13, align 8
  call void %14(ptr noundef align 8 dereferenceable_or_null(232) %6)
  ret void
}